; Function Attrs: mustprogress uwtable
define hidden void @_ZNK2bv6solver14validate_atomsEv(ptr nocapture noundef nonnull readonly align 8 dereferenceable(640) %this) local_unnamed_addr #3 align 2 {
entry:
  %m_bool_var2atom = getelementptr inbounds i8, ptr %this, i64 480
  %0 = load ptr, ptr %m_bool_var2atom, align 8
  %cmp.i.i = icmp eq ptr %0, null
  br i1 %cmp.i.i, label %for.end18, label %_ZNK6vectorIPN2bv6solver4atomELb0EjE3endEv.exit

_ZNK6vectorIPN2bv6solver4atomELb0EjE3endEv.exit:  ; preds = %entry
  %arrayidx.i.i = getelementptr inbounds i8, ptr %0, i64 -4
  %1 = load i32, ptr %arrayidx.i.i, align 4
  %2 = zext i32 %1 to i64
  %add.ptr.i = getelementptr inbounds ptr, ptr %0, i64 %2
  %cmp.not15 = icmp eq i32 %1, 0
  br i1 %cmp.not15, label %for.end18, label %for.body.lr.ph

for.body.lr.ph:                                   ; preds = %_ZNK6vectorIPN2bv6solver4atomELb0EjE3endEv.exit
  %m_bits = getelementptr inbounds i8, ptr %this, i64 456
  %3 = load ptr, ptr %m_bits, align 8
  br label %for.body

for.body:                                         ; preds = %for.body.lr.ph, %if.end16
  %v.017 = phi i32 [ 0, %for.body.lr.ph ], [ %inc, %if.end16 ]
  %__begin1.016 = phi ptr [ %0, %for.body.lr.ph ], [ %incdec.ptr, %if.end16 ]
  %4 = load ptr, ptr %__begin1.016, align 8
  %tobool.not = icmp eq ptr %4, null
  br i1 %tobool.not, label %if.end16, label %if.then

if.then:                                          ; preds = %for.body
  %m_occs.i = getelementptr inbounds i8, ptr %4, i64 16
  %__begin3.sroa.0.012 = load ptr, ptr %m_occs.i, align 8
  %cmp.i.i7.not13 = icmp eq ptr %__begin3.sroa.0.012, null
  br i1 %cmp.i.i7.not13, label %if.end16, label %for.body8

for.cond6:                                        ; preds = %for.body8
  %m_next.i = getelementptr inbounds i8, ptr %__begin3.sroa.0.014, i64 8
  %__begin3.sroa.0.0 = load ptr, ptr %m_next.i, align 8
  %cmp.i.i7.not = icmp eq ptr %__begin3.sroa.0.0, null
  br i1 %cmp.i.i7.not, label %if.end16, label %for.body8

for.body8:                                        ; preds = %if.then, %for.cond6
  %__begin3.sroa.0.014 = phi ptr [ %__begin3.sroa.0.0, %for.cond6 ], [ %__begin3.sroa.0.012, %if.then ]
  %retval.sroa.0.0.copyload.i = load i64, ptr %__begin3.sroa.0.014, align 8
  %vp.sroa.2.0.extract.shift = lshr i64 %retval.sroa.0.0.copyload.i, 32
  %idxprom.i = and i64 %retval.sroa.0.0.copyload.i, 4294967295
  %arrayidx.i = getelementptr inbounds %class.svector.3, ptr %3, i64 %idxprom.i
  %5 = load ptr, ptr %arrayidx.i, align 8
  %arrayidx.i9 = getelementptr inbounds %"class.sat::literal", ptr %5, i64 %vp.sroa.2.0.extract.shift
  %6 = load i32, ptr %arrayidx.i9, align 4
  %shr.i = lshr i32 %6, 1
  %cmp13 = icmp eq i32 %shr.i, %v.017
  br i1 %cmp13, label %for.cond6, label %if.then14

if.then14:                                        ; preds = %for.body8
  tail call void @_Z26notify_assertion_violationPKciS0_(ptr noundef nonnull @.str, i32 noundef 29, ptr noundef nonnull @.str.2)
  tail call void @exit(i32 noundef 114) #11
  unreachable

if.end16:                                         ; preds = %for.cond6, %if.then, %for.body
  %inc = add nuw i32 %v.017, 1
  %incdec.ptr = getelementptr inbounds i8, ptr %__begin1.016, i64 8
  %cmp.not = icmp eq ptr %incdec.ptr, %add.ptr.i
  br i1 %cmp.not, label %for.end18, label %for.body

for.end18:                                        ; preds = %if.end16, %entry, %_ZNK6vectorIPN2bv6solver4atomELb0EjE3endEv.exit
  ret void
}